target datalayout = "e-m:e-p270:32:32-p271:32:32-p272:64:64-i64:64-i128:128-f80:128-n8:16:32:64-S128"
target triple = "x86_64-pc-linux-gnu"

%"class.llvm::FoldingSetBase" = type { ptr, i32, i32 }
%"class.llvm::ImmutableListFactory" = type { %"class.llvm::FoldingSet.1395", i64 }
%"class.llvm::FoldingSet.1395" = type { %"class.llvm::FoldingSetImpl.1396" }
%"class.llvm::FoldingSetImpl.1396" = type { %"class.llvm::FoldingSetBase" }

; Function Attrs: mustprogress nounwind uwtable
define internal void @_ZN4llvm14FoldingSetImplINS_10FoldingSetINS_17ImmutableListImplIN12_GLOBAL__N_19LoopStateEEEEES5_EC2Ej(ptr noundef nonnull align 8 dereferenceable(16) %0, i32 noundef %1) unnamed_addr #0 align 2 {
  %3 = alloca ptr, align 8
  %4 = alloca i32, align 4
  store ptr %0, ptr %3, align 8
  store i32 %1, ptr %4, align 4
  %5 = load ptr, ptr %3, align 8
  %6 = load i32, ptr %4, align 4
  call void @_ZN4llvm14FoldingSetBaseC2Ej(ptr noundef nonnull align 8 dereferenceable(16) %5, i32 noundef %6)
  ret void
}

; Function Attrs: mustprogress nounwind uwtable
define internal void @_ZN4llvm10FoldingSetINS_17ImmutableListImplIN12_GLOBAL__N_19LoopStateEEEEC2Ej(ptr noundef nonnull align 8 dereferenceable(16) %0, i32 noundef %1) unnamed_addr #0 align 2 {
  %3 = alloca ptr, align 8
  %4 = alloca i32, align 4
  store ptr %0, ptr %3, align 8
  store i32 %1, ptr %4, align 4
  %5 = load ptr, ptr %3, align 8
  %6 = load i32, ptr %4, align 4
  call void @_ZN4llvm14FoldingSetImplINS_10FoldingSetINS_17ImmutableListImplIN12_GLOBAL__N_19LoopStateEEEEES5_EC2Ej(ptr noundef nonnull align 8 dereferenceable(16) %5, i32 noundef %6)
  ret void
}

; Function Attrs: mustprogress nounwind uwtable
define internal void @_ZN4llvm20ImmutableListFactoryIN12_GLOBAL__N_19LoopStateEEC2ERNS_20BumpPtrAllocatorImplINS_15MallocAllocatorELm4096ELm4096ELm128EEE(ptr noundef nonnull align 8 dereferenceable(24) %0, ptr noundef nonnull align 8 dereferenceable(96) %1) unnamed_addr #0 align 2 {
  %3 = alloca ptr, align 8
  %4 = alloca ptr, align 8
  store ptr %0, ptr %3, align 8
  store ptr %1, ptr %4, align 8
  %5 = load ptr, ptr %3, align 8
  %6 = getelementptr inbounds nuw %"class.llvm::ImmutableListFactory", ptr %5, i32 0, i32 0
  call void @_ZN4llvm10FoldingSetINS_17ImmutableListImplIN12_GLOBAL__N_19LoopStateEEEEC2Ej(ptr noundef nonnull align 8 dereferenceable(16) %6, i32 noundef 6)
  %7 = getelementptr inbounds nuw %"class.llvm::ImmutableListFactory", ptr %5, i32 0, i32 1
  %8 = load ptr, ptr %4, align 8
  %9 = ptrtoint ptr %8 to i64
  %10 = or i64 %9, 1
  store i64 %10, ptr %7, align 8
  ret void
}

; Function Attrs: mustprogress nounwind uwtable
define internal noundef ptr @_ZN5clang4ento24ProgramStatePartialTraitIN4llvm13ImmutableListIN12_GLOBAL__N_19LoopStateEEEvE13CreateContextERNS2_20BumpPtrAllocatorImplINS2_15MallocAllocatorELm4096ELm4096ELm128EEE(ptr noundef nonnull align 8 dereferenceable(96) %0) #0 align 2 {
  %2 = alloca ptr, align 8
  store ptr %0, ptr %2, align 8
  %3 = call noalias noundef nonnull ptr @_Znwm(i64 noundef 24) #16
  %4 = load ptr, ptr %2, align 8
  call void @_ZN4llvm20ImmutableListFactoryIN12_GLOBAL__N_19LoopStateEEC2ERNS_20BumpPtrAllocatorImplINS_15MallocAllocatorELm4096ELm4096ELm128EEE(ptr noundef nonnull align 8 dereferenceable(24) %3, ptr noundef nonnull align 8 dereferenceable(96) %4)
  ret ptr %3
}