; Function Attrs: mustprogress nounwind uwtable
define internal noundef nonnull ptr @_ZN5clang4ento24ProgramStatePartialTraitIN4llvm13ImmutableListIN12_GLOBAL__N_19LoopStateEEEvE13CreateContextERNS2_20BumpPtrAllocatorImplINS2_15MallocAllocatorELm4096ELm4096ELm128EEE(ptr noundef nonnull align 8 dereferenceable(96) %0) #0 align 2 {
  %2 = tail call noalias noundef nonnull dereferenceable(24) ptr @_Znwm(i64 noundef 24) #19
  tail call void @_ZN4llvm14FoldingSetBaseC2Ej(ptr noundef nonnull align 8 dereferenceable(16) %2, i32 noundef 6) #17
  %3 = getelementptr inbounds nuw i8, ptr %2, i64 16
  %4 = ptrtoint ptr %0 to i64
  %5 = or disjoint i64 %4, 1
  store i64 %5, ptr %3, align 8
  ret ptr %2
}